target datalayout = "e-m:e-p270:32:32-p271:32:32-p272:64:64-i64:64-i128:128-f80:128-n8:16:32:64-S128"
target triple = "x86_64-pc-linux-gnu"

%"class.sat::literal" = type { i32 }
%"class.euf::th_solver" = type { %"class.sat::extension", %"class.euf::th_model_builder", %"class.euf::th_decompile", %"class.euf::th_internalizer", ptr }
%"class.sat::extension" = type { ptr, i8, i32, %class.symbol, ptr }
%class.symbol = type { ptr }
%"class.euf::th_model_builder" = type { ptr }
%"class.euf::th_decompile" = type { ptr }
%"class.euf::th_internalizer" = type { ptr, %class.ptr_vector, %class.svector }
%class.ptr_vector = type { %class.vector }
%class.vector = type { ptr }
%class.svector = type { %class.vector.0 }
%class.vector.0 = type { ptr }

@_ZN3sat12null_literalE = linkonce_odr hidden constant %"class.sat::literal" { i32 -2 }, comdat, align 4

; Function Attrs: mustprogress nounwind uwtable
define linkonce_odr hidden void @_ZN3sat7literal3negEv(ptr noundef nonnull align 4 dereferenceable(4) %0) #6 comdat align 2 {
  %2 = alloca ptr, align 8
  store ptr %0, ptr %2, align 8, !tbaa !34
  %3 = load ptr, ptr %2, align 8
  %4 = getelementptr inbounds nuw %"class.sat::literal", ptr %3, i32 0, i32 0
  %5 = load i32, ptr %4, align 4, !tbaa !36
  %6 = xor i32 %5, 1
  %7 = getelementptr inbounds nuw %"class.sat::literal", ptr %3, i32 0, i32 0
  store i32 %6, ptr %7, align 4, !tbaa !36
  ret void
}

; Function Attrs: mustprogress uwtable
define hidden i32 @_ZN5array6solver11internalizeEP4exprbb(ptr noundef nonnull align 8 dereferenceable(536) %0, ptr noundef %1, i1 noundef zeroext %2, i1 noundef zeroext %3) unnamed_addr #4 align 2 {
  %5 = alloca %"class.sat::literal", align 4
  %6 = alloca ptr, align 8
  %7 = alloca ptr, align 8
  %8 = alloca i8, align 1
  %9 = alloca i8, align 1
  store ptr %0, ptr %6, align 8, !tbaa !3
  store ptr %1, ptr %7, align 8, !tbaa !8
  %10 = zext i1 %2 to i8
  store i8 %10, ptr %8, align 1, !tbaa !10
  %11 = zext i1 %3 to i8
  store i8 %11, ptr %9, align 1, !tbaa !10
  %12 = load ptr, ptr %6, align 8
  %13 = getelementptr inbounds i8, ptr %12, i64 48
  %14 = getelementptr inbounds nuw %"class.euf::th_solver", ptr %12, i32 0, i32 4
  %15 = load ptr, ptr %14, align 8, !tbaa !12
  %16 = load ptr, ptr %7, align 8, !tbaa !8
  %17 = load i8, ptr %8, align 1, !tbaa !10, !range !30, !noundef !31
  %18 = trunc i8 %17 to i1
  %19 = load i8, ptr %9, align 1, !tbaa !10, !range !30, !noundef !31
  %20 = trunc i8 %19 to i1
  %21 = call noundef zeroext i1 @_ZN3euf15th_internalizer9visit_recER11ast_managerP4exprbb(ptr noundef nonnull align 8 dereferenceable(24) %13, ptr noundef nonnull align 8 dereferenceable(976) %15, ptr noundef %16, i1 noundef zeroext %18, i1 noundef zeroext %20)
  br i1 %21, label %23, label %22

22:                                               ; preds = %4
  call void @llvm.memcpy.p0.p0.i64(ptr align 4 %5, ptr align 4 @_ZN3sat12null_literalE, i64 4, i1 false), !tbaa.struct !32
  br label %31

23:                                               ; preds = %4
  %24 = load ptr, ptr %7, align 8, !tbaa !8
  %25 = call i32 @_ZNK3euf13th_euf_solver12expr2literalEP4expr(ptr noundef nonnull align 8 dereferenceable(108) %12, ptr noundef %24)
  %26 = getelementptr inbounds nuw %"class.sat::literal", ptr %5, i32 0, i32 0
  store i32 %25, ptr %26, align 4
  %27 = load i8, ptr %8, align 1, !tbaa !10, !range !30, !noundef !31
  %28 = trunc i8 %27 to i1
  br i1 %28, label %29, label %30

29:                                               ; preds = %23
  call void @_ZN3sat7literal3negEv(ptr noundef nonnull align 4 dereferenceable(4) %5)
  br label %30

30:                                               ; preds = %29, %23
  br label %31

31:                                               ; preds = %30, %22
  %32 = getelementptr inbounds nuw %"class.sat::literal", ptr %5, i32 0, i32 0
  %33 = load i32, ptr %32, align 4
  ret i32 %33
}