; Function Attrs: mustprogress uwtable
define hidden i32 @_ZN5array6solver11internalizeEP4exprbb(ptr noundef nonnull align 8 dereferenceable(536) %0, ptr noundef %1, i1 noundef zeroext %2, i1 noundef zeroext %3) unnamed_addr #3 align 2 {
  %5 = getelementptr inbounds nuw i8, ptr %0, i64 48
  %6 = getelementptr inbounds nuw i8, ptr %0, i64 72
  %7 = load ptr, ptr %6, align 8, !tbaa !3
  %8 = tail call noundef zeroext i1 @_ZN3euf15th_internalizer9visit_recER11ast_managerP4exprbb(ptr noundef nonnull align 8 dereferenceable(24) %5, ptr noundef nonnull align 8 dereferenceable(976) %7, ptr noundef %1, i1 noundef zeroext %2, i1 noundef zeroext %3)
  br i1 %8, label %9, label %12

9:                                                ; preds = %4
  %10 = tail call i32 @_ZNK3euf13th_euf_solver12expr2literalEP4expr(ptr noundef nonnull align 8 dereferenceable(108) %0, ptr noundef %1)
  %11 = zext i1 %2 to i32
  %spec.select = xor i32 %10, %11
  br label %12

12:                                               ; preds = %9, %4
  %.sroa.0.0 = phi i32 [ -2, %4 ], [ %spec.select, %9 ]
  ret i32 %.sroa.0.0
}